target datalayout = "e-m:e-p270:32:32-p271:32:32-p272:64:64-i64:64-i128:128-f80:128-n8:16:32:64-S128"
target triple = "x86_64-pc-linux-gnu"

%struct.lv_style_t = type { ptr, i32, i8 }
%union.lv_style_value_t = type { ptr }
%struct.lv_style_const_prop_t = type { i8, %union.lv_style_value_t }

; Function Attrs: inlinehint nounwind uwtable
define internal zeroext i1 @lv_style_is_const(ptr noundef %0) #1 {
  %2 = alloca i1, align 1
  %3 = alloca ptr, align 8
  store ptr %0, ptr %3, align 8, !tbaa !3
  %4 = load ptr, ptr %3, align 8, !tbaa !3
  %5 = getelementptr inbounds nuw %struct.lv_style_t, ptr %4, i32 0, i32 2
  %6 = load i8, ptr %5, align 4, !tbaa !9
  %7 = zext i8 %6 to i32
  %8 = icmp eq i32 %7, 255
  br i1 %8, label %9, label %10

9:                                                ; preds = %1
  store i1 true, ptr %2, align 1
  br label %11

10:                                               ; preds = %1
  store i1 false, ptr %2, align 1
  br label %11

11:                                               ; preds = %10, %9
  %12 = load i1, ptr %2, align 1
  ret i1 %12
}

; Function Attrs: inlinehint nounwind uwtable
define internal i32 @lv_style_get_prop_inlined(ptr noundef %0, i8 noundef zeroext %1, ptr noundef %2) #1 {
  %4 = alloca i32, align 4
  %5 = alloca ptr, align 8
  %6 = alloca i8, align 1
  %7 = alloca ptr, align 8
  %8 = alloca ptr, align 8
  %9 = alloca i32, align 4
  %10 = alloca i32, align 4
  %11 = alloca ptr, align 8
  %12 = alloca i32, align 4
  %13 = alloca ptr, align 8
  store ptr %0, ptr %5, align 8, !tbaa !3
  store i8 %1, ptr %6, align 1, !tbaa !13
  store ptr %2, ptr %7, align 8, !tbaa !3
  %14 = load ptr, ptr %5, align 8, !tbaa !3
  %15 = call zeroext i1 @lv_style_is_const(ptr noundef %14)
  br i1 %15, label %16, label %55

16:                                               ; preds = %3
  call void @llvm.lifetime.start.p0(i64 8, ptr %8) #6
  %17 = load ptr, ptr %5, align 8, !tbaa !3
  %18 = getelementptr inbounds nuw %struct.lv_style_t, ptr %17, i32 0, i32 0
  %19 = load ptr, ptr %18, align 8, !tbaa !12
  store ptr %19, ptr %8, align 8, !tbaa !3
  call void @llvm.lifetime.start.p0(i64 4, ptr %9) #6
  store i32 0, ptr %9, align 4, !tbaa !26
  br label %20

20:                                               ; preds = %48, %16
  %21 = load ptr, ptr %8, align 8, !tbaa !3
  %22 = load i32, ptr %9, align 4, !tbaa !26
  %23 = zext i32 %22 to i64
  %24 = getelementptr inbounds nuw %struct.lv_style_const_prop_t, ptr %21, i64 %23
  %25 = getelementptr inbounds nuw %struct.lv_style_const_prop_t, ptr %24, i32 0, i32 0
  %26 = load i8, ptr %25, align 8, !tbaa !34
  %27 = zext i8 %26 to i32
  %28 = icmp ne i32 %27, 0
  br i1 %28, label %29, label %51

29:                                               ; preds = %20
  %30 = load ptr, ptr %8, align 8, !tbaa !3
  %31 = load i32, ptr %9, align 4, !tbaa !26
  %32 = zext i32 %31 to i64
  %33 = getelementptr inbounds nuw %struct.lv_style_const_prop_t, ptr %30, i64 %32
  %34 = getelementptr inbounds nuw %struct.lv_style_const_prop_t, ptr %33, i32 0, i32 0
  %35 = load i8, ptr %34, align 8, !tbaa !34
  %36 = zext i8 %35 to i32
  %37 = load i8, ptr %6, align 1, !tbaa !13
  %38 = zext i8 %37 to i32
  %39 = icmp eq i32 %36, %38
  br i1 %39, label %40, label %47

40:                                               ; preds = %29
  %41 = load ptr, ptr %7, align 8, !tbaa !3
  %42 = load ptr, ptr %8, align 8, !tbaa !3
  %43 = load i32, ptr %9, align 4, !tbaa !26
  %44 = zext i32 %43 to i64
  %45 = getelementptr inbounds nuw %struct.lv_style_const_prop_t, ptr %42, i64 %44
  %46 = getelementptr inbounds nuw %struct.lv_style_const_prop_t, ptr %45, i32 0, i32 1
  call void @llvm.memcpy.p0.p0.i64(ptr align 8 %41, ptr align 8 %46, i64 8, i1 false), !tbaa.struct !27
  store i32 1, ptr %4, align 4
  store i32 1, ptr %10, align 4
  br label %52

47:                                               ; preds = %29
  br label %48

48:                                               ; preds = %47
  %49 = load i32, ptr %9, align 4, !tbaa !26
  %50 = add i32 %49, 1
  store i32 %50, ptr %9, align 4, !tbaa !26
  br label %20, !llvm.loop !36

51:                                               ; preds = %20
  store i32 0, ptr %10, align 4
  br label %52

52:                                               ; preds = %51, %40
  call void @llvm.lifetime.end.p0(i64 4, ptr %9) #6
  call void @llvm.lifetime.end.p0(i64 8, ptr %8) #6
  %53 = load i32, ptr %10, align 4
  switch i32 %53, label %102 [
    i32 0, label %54
    i32 1, label %100
  ]

54:                                               ; preds = %52
  br label %99

55:                                               ; preds = %3
  call void @llvm.lifetime.start.p0(i64 8, ptr %11) #6
  %56 = load ptr, ptr %5, align 8, !tbaa !3
  %57 = getelementptr inbounds nuw %struct.lv_style_t, ptr %56, i32 0, i32 0
  %58 = load ptr, ptr %57, align 8, !tbaa !12
  %59 = load ptr, ptr %5, align 8, !tbaa !3
  %60 = getelementptr inbounds nuw %struct.lv_style_t, ptr %59, i32 0, i32 2
  %61 = load i8, ptr %60, align 4, !tbaa !9
  %62 = zext i8 %61 to i64
  %63 = mul i64 %62, 8
  %64 = getelementptr inbounds nuw i8, ptr %58, i64 %63
  store ptr %64, ptr %11, align 8, !tbaa !3
  call void @llvm.lifetime.start.p0(i64 4, ptr %12) #6
  store i32 0, ptr %12, align 4, !tbaa !26
  br label %65

65:                                               ; preds = %92, %55
  %66 = load i32, ptr %12, align 4, !tbaa !26
  %67 = load ptr, ptr %5, align 8, !tbaa !3
  %68 = getelementptr inbounds nuw %struct.lv_style_t, ptr %67, i32 0, i32 2
  %69 = load i8, ptr %68, align 4, !tbaa !9
  %70 = zext i8 %69 to i32
  %71 = icmp ult i32 %66, %70
  br i1 %71, label %72, label %95

72:                                               ; preds = %65
  %73 = load ptr, ptr %11, align 8, !tbaa !3
  %74 = load i32, ptr %12, align 4, !tbaa !26
  %75 = zext i32 %74 to i64
  %76 = getelementptr inbounds nuw i8, ptr %73, i64 %75
  %77 = load i8, ptr %76, align 1, !tbaa !13
  %78 = zext i8 %77 to i32
  %79 = load i8, ptr %6, align 1, !tbaa !13
  %80 = zext i8 %79 to i32
  %81 = icmp eq i32 %78, %80
  br i1 %81, label %82, label %91

82:                                               ; preds = %72
  call void @llvm.lifetime.start.p0(i64 8, ptr %13) #6
  %83 = load ptr, ptr %5, align 8, !tbaa !3
  %84 = getelementptr inbounds nuw %struct.lv_style_t, ptr %83, i32 0, i32 0
  %85 = load ptr, ptr %84, align 8, !tbaa !12
  store ptr %85, ptr %13, align 8, !tbaa !3
  %86 = load ptr, ptr %7, align 8, !tbaa !3
  %87 = load ptr, ptr %13, align 8, !tbaa !3
  %88 = load i32, ptr %12, align 4, !tbaa !26
  %89 = zext i32 %88 to i64
  %90 = getelementptr inbounds nuw %union.lv_style_value_t, ptr %87, i64 %89
  call void @llvm.memcpy.p0.p0.i64(ptr align 8 %86, ptr align 8 %90, i64 8, i1 false), !tbaa.struct !27
  store i32 1, ptr %4, align 4
  store i32 1, ptr %10, align 4
  call void @llvm.lifetime.end.p0(i64 8, ptr %13) #6
  br label %96

91:                                               ; preds = %72
  br label %92

92:                                               ; preds = %91
  %93 = load i32, ptr %12, align 4, !tbaa !26
  %94 = add i32 %93, 1
  store i32 %94, ptr %12, align 4, !tbaa !26
  br label %65, !llvm.loop !37

95:                                               ; preds = %65
  store i32 0, ptr %10, align 4
  br label %96

96:                                               ; preds = %95, %82
  call void @llvm.lifetime.end.p0(i64 4, ptr %12) #6
  call void @llvm.lifetime.end.p0(i64 8, ptr %11) #6
  %97 = load i32, ptr %10, align 4
  switch i32 %97, label %102 [
    i32 0, label %98
    i32 1, label %100
  ]

98:                                               ; preds = %96
  br label %99

99:                                               ; preds = %98, %54
  store i32 0, ptr %4, align 4
  br label %100

100:                                              ; preds = %99, %96, %52
  %101 = load i32, ptr %4, align 4
  ret i32 %101

102:                                              ; preds = %96, %52
  unreachable
}

; Function Attrs: nounwind uwtable
define i32 @lv_style_get_prop(ptr noundef %0, i8 noundef zeroext %1, ptr noundef %2) #0 {
  %4 = alloca ptr, align 8
  %5 = alloca i8, align 1
  %6 = alloca ptr, align 8
  store ptr %0, ptr %4, align 8, !tbaa !3
  store i8 %1, ptr %5, align 1, !tbaa !13
  store ptr %2, ptr %6, align 8, !tbaa !3
  %7 = load ptr, ptr %4, align 8, !tbaa !3
  %8 = load i8, ptr %5, align 1, !tbaa !13
  %9 = load ptr, ptr %6, align 8, !tbaa !3
  %10 = call i32 @lv_style_get_prop_inlined(ptr noundef %7, i8 noundef zeroext %8, ptr noundef %9)
  ret i32 %10
}