; Function Attrs: nofree norecurse nosync nounwind memory(read, argmem: readwrite, inaccessiblemem: none) uwtable
define range(i32 0, 2) i32 @lv_style_get_prop(ptr nocapture noundef readonly %0, i8 noundef zeroext %1, ptr nocapture noundef writeonly %2) local_unnamed_addr #3 {
  %4 = getelementptr i8, ptr %0, i64 12
  %.val.i = load i8, ptr %4, align 4, !tbaa !3
  %5 = icmp eq i8 %.val.i, -1
  %6 = load ptr, ptr %0, align 8, !tbaa !9
  br i1 %5, label %7, label %16

7:                                                ; preds = %3
  %8 = load i8, ptr %6, align 8, !tbaa !30
  %.not.not37.i = icmp eq i8 %8, 0
  br i1 %.not.not37.i, label %lv_style_get_prop_inlined.exit, label %.lr.ph39.i.preheader

.lr.ph39.i.preheader:                             ; preds = %7
  %9 = icmp eq i8 %8, %1
  br i1 %9, label %.lr.ph39.i._crit_edge, label %.lr.ph

.lr.ph:                                           ; preds = %.lr.ph39.i.preheader, %.lr.ph39.i
  %.02638.i5 = phi i32 [ %10, %.lr.ph39.i ], [ 0, %.lr.ph39.i.preheader ]
  %10 = add i32 %.02638.i5, 1
  %11 = zext i32 %10 to i64
  %12 = getelementptr inbounds nuw %struct.lv_style_const_prop_t, ptr %6, i64 %11
  %13 = load i8, ptr %12, align 8, !tbaa !30
  %.not.not.i = icmp eq i8 %13, 0
  br i1 %.not.not.i, label %lv_style_get_prop_inlined.exit, label %.lr.ph39.i, !llvm.loop !32

.lr.ph39.i:                                       ; preds = %.lr.ph
  %14 = icmp eq i8 %13, %1
  br i1 %14, label %.lr.ph39.i._crit_edge, label %.lr.ph, !llvm.loop !32

.lr.ph39.i._crit_edge:                            ; preds = %.lr.ph39.i, %.lr.ph39.i.preheader
  %.lcssa = phi ptr [ %6, %.lr.ph39.i.preheader ], [ %12, %.lr.ph39.i ]
  %15 = getelementptr inbounds nuw i8, ptr %.lcssa, i64 8
  br label %.thread.sink.split.i

16:                                               ; preds = %3
  %17 = zext i8 %.val.i to i64
  %18 = shl nuw nsw i64 %17, 3
  %19 = getelementptr inbounds nuw i8, ptr %6, i64 %18
  %.not.i = icmp eq i8 %.val.i, 0
  br i1 %.not.i, label %lv_style_get_prop_inlined.exit, label %.lr.ph.i

20:                                               ; preds = %.lr.ph.i
  %indvars.iv.next.i = add nuw nsw i64 %indvars.iv.i, 1
  %exitcond.not.i = icmp eq i64 %indvars.iv.next.i, %17
  br i1 %exitcond.not.i, label %lv_style_get_prop_inlined.exit, label %.lr.ph.i, !llvm.loop !33

.lr.ph.i:                                         ; preds = %16, %20
  %indvars.iv.i = phi i64 [ %indvars.iv.next.i, %20 ], [ 0, %16 ]
  %21 = getelementptr inbounds nuw i8, ptr %19, i64 %indvars.iv.i
  %22 = load i8, ptr %21, align 1, !tbaa !23
  %23 = icmp eq i8 %22, %1
  br i1 %23, label %24, label %20

24:                                               ; preds = %.lr.ph.i
  %25 = getelementptr inbounds nuw %union.lv_style_value_t, ptr %6, i64 %indvars.iv.i
  br label %.thread.sink.split.i

.thread.sink.split.i:                             ; preds = %24, %.lr.ph39.i._crit_edge
  %.sink.in.i = phi ptr [ %25, %24 ], [ %15, %.lr.ph39.i._crit_edge ]
  %.sink.i = load i64, ptr %.sink.in.i, align 8, !tbaa !23
  store i64 %.sink.i, ptr %2, align 8, !tbaa !23
  br label %lv_style_get_prop_inlined.exit

lv_style_get_prop_inlined.exit:                   ; preds = %20, %.lr.ph, %7, %16, %.thread.sink.split.i
  %.1.i = phi i32 [ 0, %7 ], [ 0, %16 ], [ 1, %.thread.sink.split.i ], [ 0, %.lr.ph ], [ 0, %20 ]
  ret i32 %.1.i
}